; ModuleID = '52/1135.c'
source_filename = "52/1135.c"
target datalayout = "e-m:e-p270:32:32-p271:32:32-p272:64:64-i64:64-f80:128-n8:16:32:64-S128"
target triple = "x86_64-pc-linux-gnu"

@.str = private unnamed_addr constant [6 x i8] c"%d %d\00", align 1
@.str.1 = private unnamed_addr constant [3 x i8] c"%d\00", align 1
@.str.2 = private unnamed_addr constant [4 x i8] c" %d\00", align 1

; Function Attrs: noinline nounwind uwtable
define dso_local void @main() #0 {
  %1 = alloca i32, align 4
  %2 = alloca i32, align 4
  %3 = alloca [200 x i32], align 16
  %4 = alloca i32*, align 8
  %5 = call i32 (i8*, ...) @__isoc99_scanf(i8* getelementptr inbounds ([6 x i8], [6 x i8]* @.str, i64 0, i64 0), i32* %1, i32* %2)
  %6 = getelementptr inbounds [200 x i32], [200 x i32]* %3, i64 0, i64 0
  store i32* %6, i32** %4, align 8
  br label %7

7:                                                ; preds = %17, %0
  %8 = load i32*, i32** %4, align 8
  %9 = getelementptr inbounds [200 x i32], [200 x i32]* %3, i64 0, i64 0
  %10 = load i32, i32* %1, align 4
  %11 = sext i32 %10 to i64
  %12 = getelementptr inbounds i32, i32* %9, i64 %11
  %13 = icmp ult i32* %8, %12
  br i1 %13, label %14, label %20

14:                                               ; preds = %7
  %15 = load i32*, i32** %4, align 8
  %16 = call i32 (i8*, ...) @__isoc99_scanf(i8* getelementptr inbounds ([3 x i8], [3 x i8]* @.str.1, i64 0, i64 0), i32* %15)
  br label %17

17:                                               ; preds = %14
  %18 = load i32*, i32** %4, align 8
  %19 = getelementptr inbounds i32, i32* %18, i32 1
  store i32* %19, i32** %4, align 8
  br label %7

20:                                               ; preds = %7
  %21 = getelementptr inbounds [200 x i32], [200 x i32]* %3, i64 0, i64 0
  store i32* %21, i32** %4, align 8
  %22 = getelementptr inbounds [200 x i32], [200 x i32]* %3, i64 0, i64 0
  store i32* %22, i32** %4, align 8
  br label %23

23:                                               ; preds = %38, %20
  %24 = load i32*, i32** %4, align 8
  %25 = load i32, i32* %1, align 4
  %26 = load i32, i32* %2, align 4
  %27 = sub nsw i32 %25, %26
  %28 = sext i32 %27 to i64
  %29 = getelementptr inbounds [200 x i32], [200 x i32]* %3, i64 0, i64 %28
  %30 = icmp ult i32* %24, %29
  br i1 %30, label %31, label %41

31:                                               ; preds = %23
  %32 = load i32*, i32** %4, align 8
  %33 = load i32, i32* %32, align 4
  %34 = load i32*, i32** %4, align 8
  %35 = load i32, i32* %1, align 4
  %36 = sext i32 %35 to i64
  %37 = getelementptr inbounds i32, i32* %34, i64 %36
  store i32 %33, i32* %37, align 4
  br label %38

38:                                               ; preds = %31
  %39 = load i32*, i32** %4, align 8
  %40 = getelementptr inbounds i32, i32* %39, i32 1
  store i32* %40, i32** %4, align 8
  br label %23

41:                                               ; preds = %23
  %42 = getelementptr inbounds [200 x i32], [200 x i32]* %3, i64 0, i64 0
  store i32* %42, i32** %4, align 8
  br label %43

43:                                               ; preds = %58, %41
  %44 = load i32*, i32** %4, align 8
  %45 = load i32, i32* %1, align 4
  %46 = sext i32 %45 to i64
  %47 = getelementptr inbounds [200 x i32], [200 x i32]* %3, i64 0, i64 %46
  %48 = icmp ult i32* %44, %47
  br i1 %48, label %49, label %61

49:                                               ; preds = %43
  %50 = load i32, i32* %1, align 4
  %51 = load i32, i32* %2, align 4
  %52 = sub nsw i32 %50, %51
  %53 = load i32*, i32** %4, align 8
  %54 = sext i32 %52 to i64
  %55 = getelementptr inbounds i32, i32* %53, i64 %54
  %56 = load i32, i32* %55, align 4
  %57 = load i32*, i32** %4, align 8
  store i32 %56, i32* %57, align 4
  br label %58

58:                                               ; preds = %49
  %59 = load i32*, i32** %4, align 8
  %60 = getelementptr inbounds i32, i32* %59, i32 1
  store i32* %60, i32** %4, align 8
  br label %43

61:                                               ; preds = %43
  %62 = getelementptr inbounds [200 x i32], [200 x i32]* %3, i64 0, i64 0
  store i32* %62, i32** %4, align 8
  br label %63

63:                                               ; preds = %82, %61
  %64 = load i32*, i32** %4, align 8
  %65 = load i32, i32* %1, align 4
  %66 = sext i32 %65 to i64
  %67 = getelementptr inbounds [200 x i32], [200 x i32]* %3, i64 0, i64 %66
  %68 = icmp ult i32* %64, %67
  br i1 %68, label %69, label %85

69:                                               ; preds = %63
  %70 = load i32*, i32** %4, align 8
  %71 = getelementptr inbounds [200 x i32], [200 x i32]* %3, i64 0, i64 0
  %72 = icmp eq i32* %70, %71
  br i1 %72, label %73, label %77

73:                                               ; preds = %69
  %74 = load i32*, i32** %4, align 8
  %75 = load i32, i32* %74, align 4
  %76 = call i32 (i8*, ...) @printf(i8* getelementptr inbounds ([3 x i8], [3 x i8]* @.str.1, i64 0, i64 0), i32 %75)
  br label %81

77:                                               ; preds = %69
  %78 = load i32*, i32** %4, align 8
  %79 = load i32, i32* %78, align 4
  %80 = call i32 (i8*, ...) @printf(i8* getelementptr inbounds ([4 x i8], [4 x i8]* @.str.2, i64 0, i64 0), i32 %79)
  br label %81

81:                                               ; preds = %77, %73
  br label %82

82:                                               ; preds = %81
  %83 = load i32*, i32** %4, align 8
  %84 = getelementptr inbounds i32, i32* %83, i32 1
  store i32* %84, i32** %4, align 8
  br label %63

85:                                               ; preds = %63
  ret void
}

declare dso_local i32 @__isoc99_scanf(i8*, ...) #1

declare dso_local i32 @printf(i8*, ...) #1


!llvm.module.flags = !{!0}
!llvm.ident = !{!1}

!0 = !{i32 1, !"wchar_size", i32 4}
!1 = !{!"clang version 10.0.0-4ubuntu1 "}
